target datalayout = "e-m:e-p270:32:32-p271:32:32-p272:64:64-i64:64-i128:128-f80:128-n8:16:32:64-S128"
target triple = "x86_64-pc-linux-gnu"

@.str = private unnamed_addr constant [31 x i8] c"../openssl/test/cmp_ctx_test.c\00", align 1
@.str.63 = private unnamed_addr constant [2 x i8] c"0\00", align 1
@.str.75 = private unnamed_addr constant [5 x i8] c"func\00", align 1
@.str.76 = private unnamed_addr constant [30 x i8] c"\22execute_cmp_ctx_log_cb_test\22\00", align 1
@.str.77 = private unnamed_addr constant [28 x i8] c"execute_cmp_ctx_log_cb_test\00", align 1
@.str.78 = private unnamed_addr constant [21 x i8] c"\22(unknown function)\22\00", align 1
@.str.79 = private unnamed_addr constant [19 x i8] c"(unknown function)\00", align 1
@.str.80 = private unnamed_addr constant [5 x i8] c"file\00", align 1
@.str.81 = private unnamed_addr constant [13 x i8] c"OPENSSL_FILE\00", align 1
@.str.82 = private unnamed_addr constant [12 x i8] c"\22(no file)\22\00", align 1
@.str.83 = private unnamed_addr constant [10 x i8] c"(no file)\00", align 1
@.str.84 = private unnamed_addr constant [5 x i8] c"line\00", align 1
@.str.85 = private unnamed_addr constant [14 x i8] c"test_log_line\00", align 1
@test_log_line = internal global i32 0, align 4
@.str.86 = private unnamed_addr constant [6 x i8] c"level\00", align 1
@.str.87 = private unnamed_addr constant [18 x i8] c"OSSL_CMP_LOG_INFO\00", align 1
@.str.88 = private unnamed_addr constant [3 x i8] c"-1\00", align 1
@.str.89 = private unnamed_addr constant [4 x i8] c"msg\00", align 1
@.str.90 = private unnamed_addr constant [5 x i8] c"\22ok\22\00", align 1
@.str.91 = private unnamed_addr constant [3 x i8] c"ok\00", align 1
@test_log_cb_res = internal global i32 0, align 4

; Function Attrs: nounwind uwtable
define internal i32 @test_log_cb(ptr noundef %0, ptr noundef %1, i32 noundef %2, i32 noundef %3, ptr noundef %4) #0 {
  %6 = alloca ptr, align 8
  %7 = alloca ptr, align 8
  %8 = alloca i32, align 4
  %9 = alloca i32, align 4
  %10 = alloca ptr, align 8
  store ptr %0, ptr %6, align 8, !tbaa !9
  store ptr %1, ptr %7, align 8, !tbaa !9
  store i32 %2, ptr %8, align 4, !tbaa !13
  store i32 %3, ptr %9, align 4, !tbaa !13
  store ptr %4, ptr %10, align 8, !tbaa !9
  %11 = load ptr, ptr %6, align 8, !tbaa !9
  %12 = call i32 @test_str_eq(ptr noundef @.str, i32 noundef 264, ptr noundef @.str.75, ptr noundef @.str.76, ptr noundef %11, ptr noundef @.str.77)
  %13 = icmp ne i32 %12, 0
  br i1 %13, label %18, label %14

14:                                               ; preds = %5
  %15 = load ptr, ptr %6, align 8, !tbaa !9
  %16 = call i32 @test_str_eq(ptr noundef @.str, i32 noundef 265, ptr noundef @.str.75, ptr noundef @.str.78, ptr noundef %15, ptr noundef @.str.79)
  %17 = icmp ne i32 %16, 0
  br i1 %17, label %18, label %47

18:                                               ; preds = %14, %5
  %19 = load ptr, ptr %7, align 8, !tbaa !9
  %20 = call i32 @test_str_eq(ptr noundef @.str, i32 noundef 267, ptr noundef @.str.80, ptr noundef @.str.81, ptr noundef %19, ptr noundef @.str)
  %21 = icmp ne i32 %20, 0
  br i1 %21, label %26, label %22

22:                                               ; preds = %18
  %23 = load ptr, ptr %7, align 8, !tbaa !9
  %24 = call i32 @test_str_eq(ptr noundef @.str, i32 noundef 268, ptr noundef @.str.80, ptr noundef @.str.82, ptr noundef %23, ptr noundef @.str.83)
  %25 = icmp ne i32 %24, 0
  br i1 %25, label %26, label %47

26:                                               ; preds = %22, %18
  %27 = load i32, ptr %8, align 4, !tbaa !13
  %28 = load i32, ptr @test_log_line, align 4, !tbaa !13
  %29 = call i32 @test_int_eq(ptr noundef @.str, i32 noundef 269, ptr noundef @.str.84, ptr noundef @.str.85, i32 noundef %27, i32 noundef %28)
  %30 = icmp ne i32 %29, 0
  br i1 %30, label %35, label %31

31:                                               ; preds = %26
  %32 = load i32, ptr %8, align 4, !tbaa !13
  %33 = call i32 @test_int_eq(ptr noundef @.str, i32 noundef 269, ptr noundef @.str.84, ptr noundef @.str.63, i32 noundef %32, i32 noundef 0)
  %34 = icmp ne i32 %33, 0
  br i1 %34, label %35, label %47

35:                                               ; preds = %31, %26
  %36 = load i32, ptr %9, align 4, !tbaa !13
  %37 = call i32 @test_int_eq(ptr noundef @.str, i32 noundef 270, ptr noundef @.str.86, ptr noundef @.str.87, i32 noundef %36, i32 noundef 6)
  %38 = icmp ne i32 %37, 0
  br i1 %38, label %43, label %39

39:                                               ; preds = %35
  %40 = load i32, ptr %9, align 4, !tbaa !13
  %41 = call i32 @test_int_eq(ptr noundef @.str, i32 noundef 270, ptr noundef @.str.86, ptr noundef @.str.88, i32 noundef %40, i32 noundef -1)
  %42 = icmp ne i32 %41, 0
  br i1 %42, label %43, label %47

43:                                               ; preds = %39, %35
  %44 = load ptr, ptr %10, align 8, !tbaa !9
  %45 = call i32 @test_str_eq(ptr noundef @.str, i32 noundef 271, ptr noundef @.str.89, ptr noundef @.str.90, ptr noundef %44, ptr noundef @.str.91)
  %46 = icmp ne i32 %45, 0
  br label %47

47:                                               ; preds = %43, %39, %31, %22, %14
  %48 = phi i1 [ false, %39 ], [ false, %31 ], [ false, %22 ], [ false, %14 ], [ %46, %43 ]
  %49 = zext i1 %48 to i32
  store i32 %49, ptr @test_log_cb_res, align 4, !tbaa !13
  ret i32 1
}