; Function Attrs: nounwind uwtable
define internal noundef i32 @test_log_cb(ptr noundef %0, ptr noundef %1, i32 noundef %2, i32 noundef %3, ptr noundef %4) #1 {
  %6 = tail call i32 @test_str_eq(ptr noundef nonnull @.str, i32 noundef 264, ptr noundef nonnull @.str.75, ptr noundef nonnull @.str.76, ptr noundef %0, ptr noundef nonnull @.str.77) #6
  %.not = icmp eq i32 %6, 0
  br i1 %.not, label %7, label %9

7:                                                ; preds = %5
  %8 = tail call i32 @test_str_eq(ptr noundef nonnull @.str, i32 noundef 265, ptr noundef nonnull @.str.75, ptr noundef nonnull @.str.78, ptr noundef %0, ptr noundef nonnull @.str.79) #6
  %.not8 = icmp eq i32 %8, 0
  br i1 %.not8, label %26, label %9

9:                                                ; preds = %7, %5
  %10 = tail call i32 @test_str_eq(ptr noundef nonnull @.str, i32 noundef 267, ptr noundef nonnull @.str.80, ptr noundef nonnull @.str.81, ptr noundef %1, ptr noundef nonnull @.str) #6
  %.not9 = icmp eq i32 %10, 0
  br i1 %.not9, label %11, label %13

11:                                               ; preds = %9
  %12 = tail call i32 @test_str_eq(ptr noundef nonnull @.str, i32 noundef 268, ptr noundef nonnull @.str.80, ptr noundef nonnull @.str.82, ptr noundef %1, ptr noundef nonnull @.str.83) #6
  %.not10 = icmp eq i32 %12, 0
  br i1 %.not10, label %26, label %13

13:                                               ; preds = %11, %9
  %14 = load i32, ptr @test_log_line, align 4, !tbaa !41
  %15 = tail call i32 @test_int_eq(ptr noundef nonnull @.str, i32 noundef 269, ptr noundef nonnull @.str.84, ptr noundef nonnull @.str.85, i32 noundef %2, i32 noundef %14) #6
  %.not11 = icmp eq i32 %15, 0
  br i1 %.not11, label %16, label %18

16:                                               ; preds = %13
  %17 = tail call i32 @test_int_eq(ptr noundef nonnull @.str, i32 noundef 269, ptr noundef nonnull @.str.84, ptr noundef nonnull @.str.63, i32 noundef %2, i32 noundef 0) #6
  %.not12 = icmp eq i32 %17, 0
  br i1 %.not12, label %26, label %18

18:                                               ; preds = %16, %13
  %19 = tail call i32 @test_int_eq(ptr noundef nonnull @.str, i32 noundef 270, ptr noundef nonnull @.str.86, ptr noundef nonnull @.str.87, i32 noundef %3, i32 noundef 6) #6
  %.not13 = icmp eq i32 %19, 0
  br i1 %.not13, label %20, label %22

20:                                               ; preds = %18
  %21 = tail call i32 @test_int_eq(ptr noundef nonnull @.str, i32 noundef 270, ptr noundef nonnull @.str.86, ptr noundef nonnull @.str.88, i32 noundef %3, i32 noundef -1) #6
  %.not14 = icmp eq i32 %21, 0
  br i1 %.not14, label %26, label %22

22:                                               ; preds = %20, %18
  %23 = tail call i32 @test_str_eq(ptr noundef nonnull @.str, i32 noundef 271, ptr noundef nonnull @.str.89, ptr noundef nonnull @.str.90, ptr noundef %4, ptr noundef nonnull @.str.91) #6
  %24 = icmp ne i32 %23, 0
  %25 = zext i1 %24 to i32
  br label %26

26:                                               ; preds = %22, %20, %16, %11, %7
  %27 = phi i32 [ 0, %20 ], [ 0, %16 ], [ 0, %11 ], [ 0, %7 ], [ %25, %22 ]
  store i32 %27, ptr @test_log_cb_res, align 4, !tbaa !41
  ret i32 1
}